; ModuleID = 'source-C-CXX/2/3226.c'
source_filename = "source-C-CXX/2/3226.c"
target datalayout = "e-m:e-p270:32:32-p271:32:32-p272:64:64-i64:64-f80:128-n8:16:32:64-S128"
target triple = "x86_64-pc-linux-gnu"

@.str = private unnamed_addr constant [6 x i8] c"%d %d\00", align 1
@.str.1 = private unnamed_addr constant [3 x i8] c"%d\00", align 1
@.str.2 = private unnamed_addr constant [4 x i8] c"yes\00", align 1
@.str.3 = private unnamed_addr constant [3 x i8] c"no\00", align 1

; Function Attrs: nofree nounwind sspstrong uwtable
define dso_local i32 @main() local_unnamed_addr #0 {
  %1 = alloca i32, align 4
  %2 = alloca i32, align 4
  %3 = alloca [1000 x i32], align 16
  %4 = bitcast i32* %1 to i8*
  call void @llvm.lifetime.start.p0i8(i64 4, i8* nonnull %4) #3
  %5 = bitcast i32* %2 to i8*
  call void @llvm.lifetime.start.p0i8(i64 4, i8* nonnull %5) #3
  %6 = bitcast [1000 x i32]* %3 to i8*
  call void @llvm.lifetime.start.p0i8(i64 4000, i8* nonnull %6) #3
  %7 = call i32 (i8*, ...) @__isoc99_scanf(i8* getelementptr inbounds ([6 x i8], [6 x i8]* @.str, i64 0, i64 0), i32* nonnull %1, i32* nonnull %2)
  %8 = load i32, i32* %1, align 4, !tbaa !5
  %9 = icmp sgt i32 %8, 0
  br i1 %9, label %16, label %58

10:                                               ; preds = %16
  %11 = load i32, i32* %2, align 4
  %12 = icmp sgt i32 %21, 0
  br i1 %12, label %13, label %58

13:                                               ; preds = %10
  %14 = zext i32 %21 to i64
  %15 = zext i32 %21 to i64
  br label %27

16:                                               ; preds = %0, %16
  %17 = phi i64 [ %20, %16 ], [ 0, %0 ]
  %18 = getelementptr inbounds [1000 x i32], [1000 x i32]* %3, i64 0, i64 %17
  %19 = call i32 (i8*, ...) @__isoc99_scanf(i8* getelementptr inbounds ([3 x i8], [3 x i8]* @.str.1, i64 0, i64 0), i32* nonnull %18)
  %20 = add nuw nsw i64 %17, 1
  %21 = load i32, i32* %1, align 4, !tbaa !5
  %22 = sext i32 %21 to i64
  %23 = icmp slt i64 %20, %22
  br i1 %23, label %16, label %10, !llvm.loop !9

24:                                               ; preds = %49, %43
  %25 = add nuw nsw i64 %29, 1
  %26 = icmp eq i64 %44, %15
  br i1 %26, label %58, label %27, !llvm.loop !11

27:                                               ; preds = %13, %24
  %28 = phi i64 [ 0, %13 ], [ %44, %24 ]
  %29 = phi i64 [ 1, %13 ], [ %25, %24 ]
  %30 = icmp eq i64 %28, 0
  br i1 %30, label %43, label %31

31:                                               ; preds = %27
  %32 = getelementptr inbounds [1000 x i32], [1000 x i32]* %3, i64 0, i64 %28
  %33 = load i32, i32* %32, align 4, !tbaa !5
  br label %36

34:                                               ; preds = %36
  %35 = icmp eq i64 %42, %28
  br i1 %35, label %43, label %36, !llvm.loop !12

36:                                               ; preds = %31, %34
  %37 = phi i64 [ 0, %31 ], [ %42, %34 ]
  %38 = getelementptr inbounds [1000 x i32], [1000 x i32]* %3, i64 0, i64 %37
  %39 = load i32, i32* %38, align 4, !tbaa !5
  %40 = add nsw i32 %39, %33
  %41 = icmp eq i32 %40, %11
  %42 = add nuw nsw i64 %37, 1
  br i1 %41, label %58, label %34

43:                                               ; preds = %34, %27
  %44 = add nuw nsw i64 %28, 1
  %45 = icmp ult i64 %44, %14
  br i1 %45, label %46, label %24

46:                                               ; preds = %43
  %47 = getelementptr inbounds [1000 x i32], [1000 x i32]* %3, i64 0, i64 %28
  %48 = load i32, i32* %47, align 4, !tbaa !5
  br label %51

49:                                               ; preds = %51
  %50 = icmp eq i64 %57, %15
  br i1 %50, label %24, label %51, !llvm.loop !13

51:                                               ; preds = %46, %49
  %52 = phi i64 [ %29, %46 ], [ %57, %49 ]
  %53 = getelementptr inbounds [1000 x i32], [1000 x i32]* %3, i64 0, i64 %52
  %54 = load i32, i32* %53, align 4, !tbaa !5
  %55 = add nsw i32 %54, %48
  %56 = icmp eq i32 %55, %11
  %57 = add nuw nsw i64 %52, 1
  br i1 %56, label %58, label %49

58:                                               ; preds = %24, %36, %51, %10, %0
  %59 = phi i8* [ getelementptr inbounds ([3 x i8], [3 x i8]* @.str.3, i64 0, i64 0), %0 ], [ getelementptr inbounds ([3 x i8], [3 x i8]* @.str.3, i64 0, i64 0), %10 ], [ getelementptr inbounds ([4 x i8], [4 x i8]* @.str.2, i64 0, i64 0), %51 ], [ getelementptr inbounds ([4 x i8], [4 x i8]* @.str.2, i64 0, i64 0), %36 ], [ getelementptr inbounds ([3 x i8], [3 x i8]* @.str.3, i64 0, i64 0), %24 ]
  %60 = call i32 (i8*, ...) @printf(i8* nonnull dereferenceable(1) %59)
  call void @llvm.lifetime.end.p0i8(i64 4000, i8* nonnull %6) #3
  call void @llvm.lifetime.end.p0i8(i64 4, i8* nonnull %5) #3
  call void @llvm.lifetime.end.p0i8(i64 4, i8* nonnull %4) #3
  ret i32 0
}

; Function Attrs: argmemonly mustprogress nofree nosync nounwind willreturn
declare void @llvm.lifetime.start.p0i8(i64 immarg, i8* nocapture) #1

; Function Attrs: nofree nounwind
declare noundef i32 @__isoc99_scanf(i8* nocapture noundef readonly, ...) local_unnamed_addr #2

; Function Attrs: nofree nounwind
declare noundef i32 @printf(i8* nocapture noundef readonly, ...) local_unnamed_addr #2

; Function Attrs: argmemonly mustprogress nofree nosync nounwind willreturn
declare void @llvm.lifetime.end.p0i8(i64 immarg, i8* nocapture) #1


!llvm.module.flags = !{!0, !1, !2, !3}
!llvm.ident = !{!4}

!0 = !{i32 1, !"wchar_size", i32 4}
!1 = !{i32 7, !"PIC Level", i32 2}
!2 = !{i32 7, !"PIE Level", i32 2}
!3 = !{i32 7, !"uwtable", i32 1}
!4 = !{!"clang version 13.0.0"}
!5 = !{!6, !6, i64 0}
!6 = !{!"int", !7, i64 0}
!7 = !{!"omnipotent char", !8, i64 0}
!8 = !{!"Simple C/C++ TBAA"}
!9 = distinct !{!9, !10}
!10 = !{!"llvm.loop.mustprogress"}
!11 = distinct !{!11, !10}
!12 = distinct !{!12, !10}
!13 = distinct !{!13, !10}
